; Function Attrs: nounwind uwtable
define dso_local i32 @uv__udp_recv_start(ptr noundef %0, ptr noundef %1, ptr noundef %2) local_unnamed_addr #0 {
  %4 = alloca %union.uv__sockaddr, align 4
  %5 = icmp eq ptr %1, null
  %6 = icmp eq ptr %2, null
  %or.cond = or i1 %5, %6
  br i1 %or.cond, label %46, label %7

7:                                                ; preds = %3
  %8 = getelementptr inbounds nuw i8, ptr %0, i64 128
  %9 = tail call i32 @uv__io_active(ptr noundef nonnull %8, i32 noundef 1) #9
  %.not = icmp eq i32 %9, 0
  br i1 %.not, label %10, label %46

10:                                               ; preds = %7
  call void @llvm.lifetime.start.p0(i64 28, ptr nonnull %4)
  %11 = getelementptr inbounds nuw i8, ptr %0, i64 176
  %12 = load i32, ptr %11, align 8
  %.not.i = icmp eq i32 %12, -1
  br i1 %.not.i, label %13, label %uv__udp_maybe_deferred_bind.exit.thread

13:                                               ; preds = %10
  call void @llvm.memset.p0.i64(ptr noundef nonnull align 4 dereferenceable(16) %4, i8 0, i64 16, i1 false)
  store i16 2, ptr %4, align 4
  %14 = tail call i32 @uv__socket(i32 noundef 2, i32 noundef 2, i32 noundef 0) #9
  %15 = icmp slt i32 %14, 0
  br i1 %15, label %uv__udp_maybe_deferred_bind.exit.thread27, label %16

16:                                               ; preds = %13
  store i32 %14, ptr %11, align 8
  %17 = call i32 @bind(i32 noundef %14, ptr nonnull %4, i32 noundef 16) #9
  %.not41.i = icmp eq i32 %17, 0
  br i1 %.not41.i, label %._crit_edge.i, label %18

18:                                               ; preds = %16
  %19 = tail call ptr @__errno_location() #10
  %20 = load i32, ptr %19, align 4
  %21 = icmp eq i32 %20, 97
  br i1 %21, label %uv__udp_maybe_deferred_bind.exit.thread27, label %uv__udp_maybe_deferred_bind.exit

._crit_edge.i:                                    ; preds = %16
  %22 = load i16, ptr %4, align 4
  %23 = icmp eq i16 %22, 10
  %24 = getelementptr inbounds nuw i8, ptr %0, i64 88
  %25 = load i32, ptr %24, align 8
  %26 = or i32 %25, 4194304
  %27 = select i1 %23, i32 %26, i32 %25
  %28 = or i32 %27, 8192
  store i32 %28, ptr %24, align 8
  br label %uv__udp_maybe_deferred_bind.exit.thread

uv__udp_maybe_deferred_bind.exit.thread:          ; preds = %10, %._crit_edge.i
  call void @llvm.lifetime.end.p0(i64 28, ptr nonnull %4)
  br label %30

uv__udp_maybe_deferred_bind.exit.thread27:        ; preds = %13, %18
  %.0.i.ph = phi i32 [ %14, %13 ], [ -22, %18 ]
  call void @llvm.lifetime.end.p0(i64 28, ptr nonnull %4)
  br label %46

uv__udp_maybe_deferred_bind.exit:                 ; preds = %18
  %29 = sub nsw i32 0, %20
  call void @llvm.lifetime.end.p0(i64 28, ptr nonnull %4)
  %.not20 = icmp eq i32 %20, 0
  br i1 %.not20, label %30, label %46

30:                                               ; preds = %uv__udp_maybe_deferred_bind.exit.thread, %uv__udp_maybe_deferred_bind.exit
  %31 = getelementptr inbounds nuw i8, ptr %0, i64 112
  store ptr %1, ptr %31, align 8
  %32 = getelementptr inbounds nuw i8, ptr %0, i64 120
  store ptr %2, ptr %32, align 8
  %33 = getelementptr inbounds nuw i8, ptr %0, i64 8
  %34 = load ptr, ptr %33, align 8
  call void @uv__io_start(ptr noundef %34, ptr noundef nonnull %8, i32 noundef 1) #9
  %35 = getelementptr inbounds nuw i8, ptr %0, i64 88
  %36 = load i32, ptr %35, align 8
  %37 = and i32 %36, 4
  %.not21 = icmp eq i32 %37, 0
  br i1 %.not21, label %38, label %46

38:                                               ; preds = %30
  %39 = or disjoint i32 %36, 4
  store i32 %39, ptr %35, align 8
  %40 = and i32 %36, 8
  %.not22 = icmp eq i32 %40, 0
  br i1 %.not22, label %46, label %41

41:                                               ; preds = %38
  %42 = load ptr, ptr %33, align 8
  %43 = getelementptr inbounds nuw i8, ptr %42, i64 8
  %44 = load i32, ptr %43, align 8
  %45 = add i32 %44, 1
  store i32 %45, ptr %43, align 8
  br label %46

46:                                               ; preds = %uv__udp_maybe_deferred_bind.exit.thread27, %30, %41, %38, %uv__udp_maybe_deferred_bind.exit, %7, %3
  %.0 = phi i32 [ -22, %3 ], [ -114, %7 ], [ %29, %uv__udp_maybe_deferred_bind.exit ], [ 0, %38 ], [ 0, %41 ], [ 0, %30 ], [ %.0.i.ph, %uv__udp_maybe_deferred_bind.exit.thread27 ]
  ret i32 %.0
}